target datalayout = "e-m:e-p270:32:32-p271:32:32-p272:64:64-i64:64-i128:128-f80:128-n8:16:32:64-S128"
target triple = "x86_64-pc-linux-gnu"

%struct._zval_struct = type { %union._zend_value, %union.anon, %union.anon.2 }
%union._zend_value = type { i64 }
%union.anon = type { i32 }
%union.anon.2 = type { i32 }
%struct._zend_refcounted_h = type { i32, %union.anon.3 }
%union.anon.3 = type { i32 }
%struct._zend_string = type { %struct._zend_refcounted_h, i64, i64, [1 x i8] }

@.str.4 = private unnamed_addr constant [76 x i8] c"Invalid characters passed for attempted conversion, these have been ignored\00", align 1

; Function Attrs: nounwind uwtable
define void @_php_math_basetozval(ptr noundef %0, i32 noundef %1, ptr noundef %2) #0 {
  %4 = alloca ptr, align 8
  %5 = alloca i32, align 4
  %6 = alloca ptr, align 8
  %7 = alloca i64, align 8
  %8 = alloca double, align 8
  %9 = alloca i32, align 4
  %10 = alloca i8, align 1
  %11 = alloca ptr, align 8
  %12 = alloca ptr, align 8
  %13 = alloca i64, align 8
  %14 = alloca i32, align 4
  %15 = alloca i32, align 4
  %16 = alloca ptr, align 8
  %17 = alloca ptr, align 8
  store ptr %0, ptr %4, align 8
  store i32 %1, ptr %5, align 4
  store ptr %2, ptr %6, align 8
  store i64 0, ptr %7, align 8
  store double 0.000000e+00, ptr %8, align 8
  store i32 0, ptr %9, align 4
  store i32 0, ptr %15, align 4
  %18 = load ptr, ptr %4, align 8
  %19 = getelementptr inbounds %struct._zend_string, ptr %18, i32 0, i32 3
  %20 = getelementptr inbounds [1 x i8], ptr %19, i64 0, i64 0
  store ptr %20, ptr %11, align 8
  %21 = load ptr, ptr %11, align 8
  %22 = load ptr, ptr %4, align 8
  %23 = getelementptr inbounds %struct._zend_string, ptr %22, i32 0, i32 2
  %24 = load i64, ptr %23, align 8
  %25 = getelementptr inbounds i8, ptr %21, i64 %24
  store ptr %25, ptr %12, align 8
  br label %26

26:                                               ; preds = %44, %3
  %27 = load ptr, ptr %11, align 8
  %28 = load ptr, ptr %12, align 8
  %29 = icmp ult ptr %27, %28
  br i1 %29, label %30, label %42

30:                                               ; preds = %26
  %31 = call ptr @__ctype_b_loc() #14
  %32 = load ptr, ptr %31, align 8
  %33 = load ptr, ptr %11, align 8
  %34 = load i8, ptr %33, align 1
  %35 = sext i8 %34 to i32
  %36 = sext i32 %35 to i64
  %37 = getelementptr inbounds i16, ptr %32, i64 %36
  %38 = load i16, ptr %37, align 2
  %39 = zext i16 %38 to i32
  %40 = and i32 %39, 8192
  %41 = icmp ne i32 %40, 0
  br label %42

42:                                               ; preds = %30, %26
  %43 = phi i1 [ false, %26 ], [ %41, %30 ]
  br i1 %43, label %44, label %47

44:                                               ; preds = %42
  %45 = load ptr, ptr %11, align 8
  %46 = getelementptr inbounds i8, ptr %45, i32 1
  store ptr %46, ptr %11, align 8
  br label %26

47:                                               ; preds = %42
  br label %48

48:                                               ; preds = %67, %47
  %49 = load ptr, ptr %11, align 8
  %50 = load ptr, ptr %12, align 8
  %51 = icmp ult ptr %49, %50
  br i1 %51, label %52, label %65

52:                                               ; preds = %48
  %53 = call ptr @__ctype_b_loc() #14
  %54 = load ptr, ptr %53, align 8
  %55 = load ptr, ptr %12, align 8
  %56 = getelementptr inbounds i8, ptr %55, i64 -1
  %57 = load i8, ptr %56, align 1
  %58 = sext i8 %57 to i32
  %59 = sext i32 %58 to i64
  %60 = getelementptr inbounds i16, ptr %54, i64 %59
  %61 = load i16, ptr %60, align 2
  %62 = zext i16 %61 to i32
  %63 = and i32 %62, 8192
  %64 = icmp ne i32 %63, 0
  br label %65

65:                                               ; preds = %52, %48
  %66 = phi i1 [ false, %48 ], [ %64, %52 ]
  br i1 %66, label %67, label %70

67:                                               ; preds = %65
  %68 = load ptr, ptr %12, align 8
  %69 = getelementptr inbounds i8, ptr %68, i32 -1
  store ptr %69, ptr %12, align 8
  br label %48

70:                                               ; preds = %65
  %71 = load ptr, ptr %12, align 8
  %72 = load ptr, ptr %11, align 8
  %73 = ptrtoint ptr %71 to i64
  %74 = ptrtoint ptr %72 to i64
  %75 = sub i64 %73, %74
  %76 = icmp sge i64 %75, 2
  br i1 %76, label %77, label %150

77:                                               ; preds = %70
  %78 = load i32, ptr %5, align 4
  %79 = icmp eq i32 %78, 16
  br i1 %79, label %80, label %101

80:                                               ; preds = %77
  %81 = load ptr, ptr %11, align 8
  %82 = getelementptr inbounds i8, ptr %81, i64 0
  %83 = load i8, ptr %82, align 1
  %84 = sext i8 %83 to i32
  %85 = icmp eq i32 %84, 48
  br i1 %85, label %86, label %101

86:                                               ; preds = %80
  %87 = load ptr, ptr %11, align 8
  %88 = getelementptr inbounds i8, ptr %87, i64 1
  %89 = load i8, ptr %88, align 1
  %90 = sext i8 %89 to i32
  %91 = icmp eq i32 %90, 120
  br i1 %91, label %98, label %92

92:                                               ; preds = %86
  %93 = load ptr, ptr %11, align 8
  %94 = getelementptr inbounds i8, ptr %93, i64 1
  %95 = load i8, ptr %94, align 1
  %96 = sext i8 %95 to i32
  %97 = icmp eq i32 %96, 88
  br i1 %97, label %98, label %101

98:                                               ; preds = %92, %86
  %99 = load ptr, ptr %11, align 8
  %100 = getelementptr inbounds i8, ptr %99, i64 2
  store ptr %100, ptr %11, align 8
  br label %101

101:                                              ; preds = %98, %92, %80, %77
  %102 = load i32, ptr %5, align 4
  %103 = icmp eq i32 %102, 8
  br i1 %103, label %104, label %125

104:                                              ; preds = %101
  %105 = load ptr, ptr %11, align 8
  %106 = getelementptr inbounds i8, ptr %105, i64 0
  %107 = load i8, ptr %106, align 1
  %108 = sext i8 %107 to i32
  %109 = icmp eq i32 %108, 48
  br i1 %109, label %110, label %125

110:                                              ; preds = %104
  %111 = load ptr, ptr %11, align 8
  %112 = getelementptr inbounds i8, ptr %111, i64 1
  %113 = load i8, ptr %112, align 1
  %114 = sext i8 %113 to i32
  %115 = icmp eq i32 %114, 111
  br i1 %115, label %122, label %116

116:                                              ; preds = %110
  %117 = load ptr, ptr %11, align 8
  %118 = getelementptr inbounds i8, ptr %117, i64 1
  %119 = load i8, ptr %118, align 1
  %120 = sext i8 %119 to i32
  %121 = icmp eq i32 %120, 79
  br i1 %121, label %122, label %125

122:                                              ; preds = %116, %110
  %123 = load ptr, ptr %11, align 8
  %124 = getelementptr inbounds i8, ptr %123, i64 2
  store ptr %124, ptr %11, align 8
  br label %125

125:                                              ; preds = %122, %116, %104, %101
  %126 = load i32, ptr %5, align 4
  %127 = icmp eq i32 %126, 2
  br i1 %127, label %128, label %149

128:                                              ; preds = %125
  %129 = load ptr, ptr %11, align 8
  %130 = getelementptr inbounds i8, ptr %129, i64 0
  %131 = load i8, ptr %130, align 1
  %132 = sext i8 %131 to i32
  %133 = icmp eq i32 %132, 48
  br i1 %133, label %134, label %149

134:                                              ; preds = %128
  %135 = load ptr, ptr %11, align 8
  %136 = getelementptr inbounds i8, ptr %135, i64 1
  %137 = load i8, ptr %136, align 1
  %138 = sext i8 %137 to i32
  %139 = icmp eq i32 %138, 98
  br i1 %139, label %146, label %140

140:                                              ; preds = %134
  %141 = load ptr, ptr %11, align 8
  %142 = getelementptr inbounds i8, ptr %141, i64 1
  %143 = load i8, ptr %142, align 1
  %144 = sext i8 %143 to i32
  %145 = icmp eq i32 %144, 66
  br i1 %145, label %146, label %149

146:                                              ; preds = %140, %134
  %147 = load ptr, ptr %11, align 8
  %148 = getelementptr inbounds i8, ptr %147, i64 2
  store ptr %148, ptr %11, align 8
  br label %149

149:                                              ; preds = %146, %140, %128, %125
  br label %150

150:                                              ; preds = %149, %70
  %151 = load i32, ptr %5, align 4
  %152 = sext i32 %151 to i64
  %153 = sdiv i64 9223372036854775807, %152
  store i64 %153, ptr %13, align 8
  %154 = load i32, ptr %5, align 4
  %155 = sext i32 %154 to i64
  %156 = srem i64 9223372036854775807, %155
  %157 = trunc i64 %156 to i32
  store i32 %157, ptr %14, align 4
  br label %158

158:                                              ; preds = %252, %214, %204, %150
  %159 = load ptr, ptr %11, align 8
  %160 = load ptr, ptr %12, align 8
  %161 = icmp ult ptr %159, %160
  br i1 %161, label %162, label %253

162:                                              ; preds = %158
  %163 = load ptr, ptr %11, align 8
  %164 = getelementptr inbounds i8, ptr %163, i32 1
  store ptr %164, ptr %11, align 8
  %165 = load i8, ptr %163, align 1
  store i8 %165, ptr %10, align 1
  %166 = load i8, ptr %10, align 1
  %167 = sext i8 %166 to i32
  %168 = icmp sge i32 %167, 48
  br i1 %168, label %169, label %178

169:                                              ; preds = %162
  %170 = load i8, ptr %10, align 1
  %171 = sext i8 %170 to i32
  %172 = icmp sle i32 %171, 57
  br i1 %172, label %173, label %178

173:                                              ; preds = %169
  %174 = load i8, ptr %10, align 1
  %175 = sext i8 %174 to i32
  %176 = sub nsw i32 %175, 48
  %177 = trunc i32 %176 to i8
  store i8 %177, ptr %10, align 1
  br label %209

178:                                              ; preds = %169, %162
  %179 = load i8, ptr %10, align 1
  %180 = sext i8 %179 to i32
  %181 = icmp sge i32 %180, 65
  br i1 %181, label %182, label %191

182:                                              ; preds = %178
  %183 = load i8, ptr %10, align 1
  %184 = sext i8 %183 to i32
  %185 = icmp sle i32 %184, 90
  br i1 %185, label %186, label %191

186:                                              ; preds = %182
  %187 = load i8, ptr %10, align 1
  %188 = sext i8 %187 to i32
  %189 = sub nsw i32 %188, 55
  %190 = trunc i32 %189 to i8
  store i8 %190, ptr %10, align 1
  br label %208

191:                                              ; preds = %182, %178
  %192 = load i8, ptr %10, align 1
  %193 = sext i8 %192 to i32
  %194 = icmp sge i32 %193, 97
  br i1 %194, label %195, label %204

195:                                              ; preds = %191
  %196 = load i8, ptr %10, align 1
  %197 = sext i8 %196 to i32
  %198 = icmp sle i32 %197, 122
  br i1 %198, label %199, label %204

199:                                              ; preds = %195
  %200 = load i8, ptr %10, align 1
  %201 = sext i8 %200 to i32
  %202 = sub nsw i32 %201, 87
  %203 = trunc i32 %202 to i8
  store i8 %203, ptr %10, align 1
  br label %207

204:                                              ; preds = %195, %191
  %205 = load i32, ptr %15, align 4
  %206 = add nsw i32 %205, 1
  store i32 %206, ptr %15, align 4
  br label %158

207:                                              ; preds = %199
  br label %208

208:                                              ; preds = %207, %186
  br label %209

209:                                              ; preds = %208, %173
  %210 = load i8, ptr %10, align 1
  %211 = sext i8 %210 to i32
  %212 = load i32, ptr %5, align 4
  %213 = icmp sge i32 %211, %212
  br i1 %213, label %214, label %217

214:                                              ; preds = %209
  %215 = load i32, ptr %15, align 4
  %216 = add nsw i32 %215, 1
  store i32 %216, ptr %15, align 4
  br label %158

217:                                              ; preds = %209
  %218 = load i32, ptr %9, align 4
  switch i32 %218, label %252 [
    i32 0, label %219
    i32 1, label %244
  ]

219:                                              ; preds = %217
  %220 = load i64, ptr %7, align 8
  %221 = load i64, ptr %13, align 8
  %222 = icmp slt i64 %220, %221
  br i1 %222, label %232, label %223

223:                                              ; preds = %219
  %224 = load i64, ptr %7, align 8
  %225 = load i64, ptr %13, align 8
  %226 = icmp eq i64 %224, %225
  br i1 %226, label %227, label %240

227:                                              ; preds = %223
  %228 = load i8, ptr %10, align 1
  %229 = sext i8 %228 to i32
  %230 = load i32, ptr %14, align 4
  %231 = icmp sle i32 %229, %230
  br i1 %231, label %232, label %240

232:                                              ; preds = %227, %219
  %233 = load i64, ptr %7, align 8
  %234 = load i32, ptr %5, align 4
  %235 = sext i32 %234 to i64
  %236 = mul nsw i64 %233, %235
  %237 = load i8, ptr %10, align 1
  %238 = sext i8 %237 to i64
  %239 = add nsw i64 %236, %238
  store i64 %239, ptr %7, align 8
  br label %252

240:                                              ; preds = %227, %223
  %241 = load i64, ptr %7, align 8
  %242 = sitofp i64 %241 to double
  store double %242, ptr %8, align 8
  store i32 1, ptr %9, align 4
  br label %243

243:                                              ; preds = %240
  br label %244

244:                                              ; preds = %243, %217
  %245 = load double, ptr %8, align 8
  %246 = load i32, ptr %5, align 4
  %247 = sitofp i32 %246 to double
  %248 = load i8, ptr %10, align 1
  %249 = sext i8 %248 to i32
  %250 = sitofp i32 %249 to double
  %251 = call double @llvm.fmuladd.f64(double %245, double %247, double %250)
  store double %251, ptr %8, align 8
  br label %252

252:                                              ; preds = %244, %232, %217
  br label %158

253:                                              ; preds = %158
  %254 = load i32, ptr %15, align 4
  %255 = icmp sgt i32 %254, 0
  br i1 %255, label %256, label %257

256:                                              ; preds = %253
  call void (i32, ptr, ...) @zend_error(i32 noundef 8192, ptr noundef @.str.4)
  br label %257

257:                                              ; preds = %256, %253
  %258 = load i32, ptr %9, align 4
  %259 = icmp eq i32 %258, 1
  br i1 %259, label %260, label %269

260:                                              ; preds = %257
  br label %261

261:                                              ; preds = %260
  %262 = load ptr, ptr %6, align 8
  store ptr %262, ptr %16, align 8
  %263 = load double, ptr %8, align 8
  %264 = load ptr, ptr %16, align 8
  %265 = getelementptr inbounds %struct._zval_struct, ptr %264, i32 0, i32 0
  store double %263, ptr %265, align 8
  %266 = load ptr, ptr %16, align 8
  %267 = getelementptr inbounds %struct._zval_struct, ptr %266, i32 0, i32 1
  store i32 5, ptr %267, align 8
  br label %268

268:                                              ; preds = %261
  br label %278

269:                                              ; preds = %257
  br label %270

270:                                              ; preds = %269
  %271 = load ptr, ptr %6, align 8
  store ptr %271, ptr %17, align 8
  %272 = load i64, ptr %7, align 8
  %273 = load ptr, ptr %17, align 8
  %274 = getelementptr inbounds %struct._zval_struct, ptr %273, i32 0, i32 0
  store i64 %272, ptr %274, align 8
  %275 = load ptr, ptr %17, align 8
  %276 = getelementptr inbounds %struct._zval_struct, ptr %275, i32 0, i32 1
  store i32 4, ptr %276, align 8
  br label %277

277:                                              ; preds = %270
  br label %278

278:                                              ; preds = %277, %268
  ret void
}