; Function Attrs: nounwind uwtable
define void @_php_math_basetozval(ptr noundef %0, i32 noundef %1, ptr nocapture noundef writeonly %2) local_unnamed_addr #0 {
  %.ptr = getelementptr inbounds i8, ptr %0, i64 24
  %4 = getelementptr inbounds i8, ptr %0, i64 16
  %5 = load i64, ptr %4, align 8
  %6 = getelementptr i8, ptr %0, i64 %5
  %.ptr132 = getelementptr i8, ptr %6, i64 24
  %7 = icmp sgt i64 %5, 0
  br i1 %7, label %.lr.ph, label %.critedge

.lr.ph:                                           ; preds = %3
  %8 = tail call ptr @__ctype_b_loc() #18
  %9 = load ptr, ptr %8, align 8
  br label %10

10:                                               ; preds = %.lr.ph, %16
  %.087109 = phi ptr [ %.ptr, %.lr.ph ], [ %17, %16 ]
  %11 = load i8, ptr %.087109, align 1
  %12 = sext i8 %11 to i64
  %13 = getelementptr inbounds i16, ptr %9, i64 %12
  %14 = load i16, ptr %13, align 2
  %15 = and i16 %14, 8192
  %.not = icmp eq i16 %15, 0
  br i1 %.not, label %.critedge, label %16

16:                                               ; preds = %10
  %17 = getelementptr inbounds i8, ptr %.087109, i64 1
  %18 = icmp ult ptr %17, %.ptr132
  br i1 %18, label %10, label %.critedge

.critedge:                                        ; preds = %10, %16, %3
  %.087.lcssa = phi ptr [ %.ptr, %3 ], [ %17, %16 ], [ %.087109, %10 ]
  br label %19

19:                                               ; preds = %21, %.critedge
  %.086 = phi ptr [ %.ptr132, %.critedge ], [ %24, %21 ]
  %20 = icmp ult ptr %.087.lcssa, %.086
  br i1 %20, label %21, label %.critedge2

21:                                               ; preds = %19
  %22 = tail call ptr @__ctype_b_loc() #18
  %23 = load ptr, ptr %22, align 8
  %24 = getelementptr inbounds i8, ptr %.086, i64 -1
  %25 = load i8, ptr %24, align 1
  %26 = sext i8 %25 to i64
  %27 = getelementptr inbounds i16, ptr %23, i64 %26
  %28 = load i16, ptr %27, align 2
  %29 = and i16 %28, 8192
  %.not99 = icmp eq i16 %29, 0
  br i1 %.not99, label %.critedge2, label %19

.critedge2:                                       ; preds = %19, %21
  %30 = ptrtoint ptr %.086 to i64
  %31 = ptrtoint ptr %.087.lcssa to i64
  %32 = sub i64 %30, %31
  %33 = icmp sgt i64 %32, 1
  br i1 %33, label %34, label %.thread105

34:                                               ; preds = %.critedge2
  switch i32 %1, label %.thread105 [
    i32 16, label %35
    i32 8, label %43
    i32 2, label %51
  ]

35:                                               ; preds = %34
  %36 = load i8, ptr %.087.lcssa, align 1
  %37 = icmp eq i8 %36, 48
  br i1 %37, label %38, label %.thread105

38:                                               ; preds = %35
  %39 = getelementptr inbounds i8, ptr %.087.lcssa, i64 1
  %40 = load i8, ptr %39, align 1
  switch i8 %40, label %.thread105 [
    i8 120, label %41
    i8 88, label %41
  ]

41:                                               ; preds = %38, %38
  %42 = getelementptr inbounds i8, ptr %.087.lcssa, i64 2
  br label %.thread105

43:                                               ; preds = %34
  %44 = load i8, ptr %.087.lcssa, align 1
  %45 = icmp eq i8 %44, 48
  br i1 %45, label %46, label %.thread105

46:                                               ; preds = %43
  %47 = getelementptr inbounds i8, ptr %.087.lcssa, i64 1
  %48 = load i8, ptr %47, align 1
  switch i8 %48, label %.thread105 [
    i8 111, label %49
    i8 79, label %49
  ]

49:                                               ; preds = %46, %46
  %50 = getelementptr inbounds i8, ptr %.087.lcssa, i64 2
  br label %.thread105

51:                                               ; preds = %34
  %52 = load i8, ptr %.087.lcssa, align 1
  %53 = icmp eq i8 %52, 48
  br i1 %53, label %54, label %.thread105

54:                                               ; preds = %51
  %55 = getelementptr inbounds i8, ptr %.087.lcssa, i64 1
  %56 = load i8, ptr %55, align 1
  switch i8 %56, label %.thread105 [
    i8 98, label %57
    i8 66, label %57
  ]

57:                                               ; preds = %54, %54
  %58 = getelementptr inbounds i8, ptr %.087.lcssa, i64 2
  br label %.thread105

.thread105:                                       ; preds = %34, %35, %41, %38, %43, %49, %46, %54, %51, %57, %.critedge2
  %.3 = phi ptr [ %58, %57 ], [ %.087.lcssa, %51 ], [ %.087.lcssa, %.critedge2 ], [ %.087.lcssa, %54 ], [ %.087.lcssa, %46 ], [ %.087.lcssa, %43 ], [ %50, %49 ], [ %.087.lcssa, %38 ], [ %.087.lcssa, %35 ], [ %42, %41 ], [ %.087.lcssa, %34 ]
  %59 = sext i32 %1 to i64
  %60 = sdiv i64 9223372036854775807, %59
  %61 = srem i64 9223372036854775807, %59
  %62 = trunc i64 %61 to i32
  %63 = icmp ult ptr %.3, %.086
  br i1 %63, label %.lr.ph114.lr.ph, label %.thread

.lr.ph114.lr.ph:                                  ; preds = %.thread105
  %64 = sitofp i32 %1 to double
  br label %.lr.ph114

.lr.ph114:                                        ; preds = %.lr.ph114.lr.ph, %.outer
  %.0.ph127 = phi i64 [ 0, %.lr.ph114.lr.ph ], [ %.1, %.outer ]
  %.079.ph126 = phi double [ 0.000000e+00, %.lr.ph114.lr.ph ], [ %.2, %.outer ]
  %.081.ph125 = phi i32 [ 0, %.lr.ph114.lr.ph ], [ %.081113, %.outer ]
  %.082.ph124 = phi i32 [ 0, %.lr.ph114.lr.ph ], [ %.284, %.outer ]
  %.4.ph123 = phi ptr [ %.3, %.lr.ph114.lr.ph ], [ %66, %.outer ]
  br label %65

65:                                               ; preds = %.lr.ph114, %.backedge
  %.081113 = phi i32 [ %.081.ph125, %.lr.ph114 ], [ %.081.be, %.backedge ]
  %.4112 = phi ptr [ %.4.ph123, %.lr.ph114 ], [ %66, %.backedge ]
  %66 = getelementptr inbounds i8, ptr %.4112, i64 1
  %67 = load i8, ptr %.4112, align 1
  %68 = add i8 %67, -48
  %or.cond = icmp ult i8 %68, 10
  br i1 %or.cond, label %78, label %69

69:                                               ; preds = %65
  %70 = add i8 %67, -65
  %or.cond7 = icmp ult i8 %70, 26
  br i1 %or.cond7, label %71, label %73

71:                                               ; preds = %69
  %72 = add nsw i8 %67, -55
  br label %78

73:                                               ; preds = %69
  %74 = add i8 %67, -97
  %or.cond10 = icmp ult i8 %74, 26
  br i1 %or.cond10, label %75, label %.backedge

75:                                               ; preds = %73
  %76 = add nsw i8 %67, -87
  br label %78

.backedge:                                        ; preds = %78, %73
  %.081.be = add nsw i32 %.081113, 1
  %77 = icmp ult ptr %66, %.086
  br i1 %77, label %65, label %.outer._crit_edge

78:                                               ; preds = %65, %71, %75
  %.085 = phi i8 [ %72, %71 ], [ %76, %75 ], [ %68, %65 ]
  %79 = zext nneg i8 %.085 to i32
  %.not100 = icmp slt i32 %79, %1
  br i1 %.not100, label %80, label %.backedge

80:                                               ; preds = %78
  %switch = icmp eq i32 %.082.ph124, 0
  br i1 %switch, label %81, label %91

81:                                               ; preds = %80
  %82 = icmp slt i64 %.0.ph127, %60
  br i1 %82, label %85, label %83

83:                                               ; preds = %81
  %84 = icmp ne i64 %.0.ph127, %60
  %.not101 = icmp sgt i32 %79, %62
  %or.cond102 = or i1 %84, %.not101
  br i1 %or.cond102, label %89, label %85

85:                                               ; preds = %83, %81
  %86 = mul nsw i64 %.0.ph127, %59
  %87 = zext nneg i8 %.085 to i64
  %88 = add nsw i64 %86, %87
  br label %.outer

89:                                               ; preds = %83
  %90 = sitofp i64 %.0.ph127 to double
  br label %91

91:                                               ; preds = %80, %89
  %.180 = phi double [ %.079.ph126, %80 ], [ %90, %89 ]
  %92 = uitofp i8 %.085 to double
  %93 = tail call double @llvm.fmuladd.f64(double %.180, double %64, double %92)
  br label %.outer

.outer:                                           ; preds = %91, %85
  %.284 = phi i32 [ 1, %91 ], [ 0, %85 ]
  %.2 = phi double [ %93, %91 ], [ %.079.ph126, %85 ]
  %.1 = phi i64 [ %.0.ph127, %91 ], [ %88, %85 ]
  %94 = icmp ult ptr %66, %.086
  br i1 %94, label %.lr.ph114, label %.outer._crit_edge

.outer._crit_edge:                                ; preds = %.outer, %.backedge
  %.082.ph.lcssa = phi i32 [ %.082.ph124, %.backedge ], [ %.284, %.outer ]
  %.079.ph.lcssa = phi double [ %.079.ph126, %.backedge ], [ %.2, %.outer ]
  %.0.ph.lcssa = phi i64 [ %.0.ph127, %.backedge ], [ %.1, %.outer ]
  %.081.lcssa = phi i32 [ %.081.be, %.backedge ], [ %.081113, %.outer ]
  %95 = icmp sgt i32 %.081.lcssa, 0
  br i1 %95, label %96, label %97

96:                                               ; preds = %.outer._crit_edge
  tail call void (i32, ptr, ...) @zend_error(i32 noundef 8192, ptr noundef nonnull @.str.4) #15
  br label %97

97:                                               ; preds = %96, %.outer._crit_edge
  %98 = icmp eq i32 %.082.ph.lcssa, 1
  %99 = bitcast double %.079.ph.lcssa to i64
  %spec.select = select i1 %98, i64 %99, i64 %.0.ph.lcssa
  %spec.select158 = select i1 %98, i32 5, i32 4
  br label %.thread

.thread:                                          ; preds = %97, %.thread105
  %.0.ph.lcssa.sink = phi i64 [ 0, %.thread105 ], [ %spec.select, %97 ]
  %.sink = phi i32 [ 4, %.thread105 ], [ %spec.select158, %97 ]
  store i64 %.0.ph.lcssa.sink, ptr %2, align 8
  %100 = getelementptr inbounds i8, ptr %2, i64 8
  store i32 %.sink, ptr %100, align 8
  ret void
}